target datalayout = "e-m:e-p270:32:32-p271:32:32-p272:64:64-i64:64-i128:128-f80:128-n8:16:32:64-S128"
target triple = "x86_64-pc-linux-gnu"

@cdb_control_fields = hidden constant [6 x ptr] [ptr @hf_scsi_control_vendor_specific, ptr @hf_scsi_control_reserved, ptr @hf_scsi_control_naca, ptr @hf_scsi_control_obs1, ptr @hf_scsi_control_obs2, ptr null], align 16
@hf_scsi_control = hidden global i32 0, align 4
@ett_scsi_control = hidden global i32 0, align 4
@hf_scsi_alloclen = internal global i32 0, align 4

; Function Attrs: nounwind uwtable
define hidden void @dissect_spc_requestsense(ptr noundef %0, ptr noundef %1, ptr noundef %2, i32 noundef %3, i32 noundef %4, i32 noundef %5, i32 noundef %6, ptr noundef %7) #0 {
  %9 = alloca ptr, align 8
  %10 = alloca ptr, align 8
  %11 = alloca ptr, align 8
  %12 = alloca i32, align 4
  %13 = alloca i32, align 4
  %14 = alloca i32, align 4
  %15 = alloca i32, align 4
  %16 = alloca ptr, align 8
  store ptr %0, ptr %9, align 8
  store ptr %1, ptr %10, align 8
  store ptr %2, ptr %11, align 8
  store i32 %3, ptr %12, align 4
  store i32 %4, ptr %13, align 4
  store i32 %5, ptr %14, align 4
  store i32 %6, ptr %15, align 4
  store ptr %7, ptr %16, align 8
  %17 = load ptr, ptr %11, align 8
  %18 = icmp ne ptr %17, null
  br i1 %18, label %20, label %19

19:                                               ; preds = %8
  br label %48

20:                                               ; preds = %8
  %21 = load i32, ptr %13, align 4
  %22 = icmp ne i32 %21, 0
  br i1 %22, label %23, label %40

23:                                               ; preds = %20
  %24 = load i32, ptr %14, align 4
  %25 = icmp ne i32 %24, 0
  br i1 %25, label %26, label %40

26:                                               ; preds = %23
  %27 = load ptr, ptr %11, align 8
  %28 = load i32, ptr @hf_scsi_alloclen, align 4
  %29 = load ptr, ptr %9, align 8
  %30 = load i32, ptr %12, align 4
  %31 = add i32 %30, 3
  %32 = call ptr @proto_tree_add_item(ptr noundef %27, i32 noundef %28, ptr noundef %29, i32 noundef %31, i32 noundef 1, i32 noundef 0)
  %33 = load ptr, ptr %11, align 8
  %34 = load ptr, ptr %9, align 8
  %35 = load i32, ptr %12, align 4
  %36 = add i32 %35, 4
  %37 = load i32, ptr @hf_scsi_control, align 4
  %38 = load i32, ptr @ett_scsi_control, align 4
  %39 = call ptr @proto_tree_add_bitmask(ptr noundef %33, ptr noundef %34, i32 noundef %36, i32 noundef %37, i32 noundef %38, ptr noundef @cdb_control_fields, i32 noundef 0)
  br label %48

40:                                               ; preds = %23, %20
  %41 = load i32, ptr %13, align 4
  %42 = icmp ne i32 %41, 0
  br i1 %42, label %47, label %43

43:                                               ; preds = %40
  %44 = load ptr, ptr %9, align 8
  %45 = load ptr, ptr %11, align 8
  %46 = load i32, ptr %12, align 4
  call void @dissect_scsi_sense(ptr noundef %44, ptr noundef %45, i32 noundef %46)
  br label %47

47:                                               ; preds = %43, %40
  br label %48

48:                                               ; preds = %47, %26, %19
  ret void
}