; Function Attrs: nounwind uwtable
define hidden void @dissect_spc_requestsense(ptr noundef %0, ptr readnone captures(none) %1, ptr noundef %2, i32 noundef %3, i32 noundef %4, i32 noundef %5, i32 %6, ptr readnone captures(none) %7) #0 {
  %.not = icmp eq ptr %2, null
  br i1 %.not, label %22, label %9

9:                                                ; preds = %8
  %10 = icmp ne i32 %4, 0
  %11 = icmp ne i32 %5, 0
  %or.cond = and i1 %10, %11
  br i1 %or.cond, label %12, label %20

12:                                               ; preds = %9
  %13 = load i32, ptr @hf_scsi_alloclen, align 4
  %14 = add i32 %3, 3
  %15 = tail call ptr @proto_tree_add_item(ptr noundef nonnull %2, i32 noundef %13, ptr noundef %0, i32 noundef %14, i32 noundef 1, i32 noundef 0) #10
  %16 = add i32 %3, 4
  %17 = load i32, ptr @hf_scsi_control, align 4
  %18 = load i32, ptr @ett_scsi_control, align 4
  %19 = tail call ptr @proto_tree_add_bitmask(ptr noundef nonnull %2, ptr noundef %0, i32 noundef %16, i32 noundef %17, i32 noundef %18, ptr noundef nonnull @cdb_control_fields, i32 noundef 0) #10
  br label %22

20:                                               ; preds = %9
  br i1 %10, label %22, label %21

21:                                               ; preds = %20
  tail call fastcc void @dissect_scsi_sense(ptr noundef %0, ptr noundef nonnull %2, i32 noundef %3)
  br label %22

22:                                               ; preds = %20, %21, %8, %12
  ret void
}